target datalayout = "e-m:e-p270:32:32-p271:32:32-p272:64:64-i64:64-i128:128-f80:128-n8:16:32:64-S128"
target triple = "x86_64-pc-linux-gnu"

%struct.Vec_Int_t_ = type { i32, i32, ptr }

; Function Attrs: inlinehint nounwind uwtable
define internal i32 @Abc_Lit2Var(i32 noundef %0) #2 {
  %2 = alloca i32, align 4
  store i32 %0, ptr %2, align 4, !tbaa !12
  %3 = load i32, ptr %2, align 4, !tbaa !12
  %4 = ashr i32 %3, 1
  ret i32 %4
}

; Function Attrs: inlinehint nounwind uwtable
define internal i32 @Vec_IntEntry(ptr noundef %0, i32 noundef %1) #2 {
  %3 = alloca ptr, align 8
  %4 = alloca i32, align 4
  store ptr %0, ptr %3, align 8, !tbaa !10
  store i32 %1, ptr %4, align 4, !tbaa !12
  %5 = load ptr, ptr %3, align 8, !tbaa !10
  %6 = getelementptr inbounds nuw %struct.Vec_Int_t_, ptr %5, i32 0, i32 2
  %7 = load ptr, ptr %6, align 8, !tbaa !24
  %8 = load i32, ptr %4, align 4, !tbaa !12
  %9 = sext i32 %8 to i64
  %10 = getelementptr inbounds i32, ptr %7, i64 %9
  %11 = load i32, ptr %10, align 4, !tbaa !12
  ret i32 %11
}

; Function Attrs: inlinehint nounwind uwtable
define internal i32 @Vec_IntSize(ptr noundef %0) #2 {
  %2 = alloca ptr, align 8
  store ptr %0, ptr %2, align 8, !tbaa !10
  %3 = load ptr, ptr %2, align 8, !tbaa !10
  %4 = getelementptr inbounds nuw %struct.Vec_Int_t_, ptr %3, i32 0, i32 1
  %5 = load i32, ptr %4, align 4, !tbaa !21
  ret i32 %5
}

; Function Attrs: nounwind uwtable
define i64 @Sbd_ManSolverSupp(ptr noundef %0, ptr noundef %1, ptr noundef %2) #0 {
  %4 = alloca ptr, align 8
  %5 = alloca ptr, align 8
  %6 = alloca ptr, align 8
  %7 = alloca i64, align 8
  %8 = alloca i32, align 4
  %9 = alloca i32, align 4
  %10 = alloca i32, align 4
  store ptr %0, ptr %4, align 8, !tbaa !10
  store ptr %1, ptr %5, align 8, !tbaa !45
  store ptr %2, ptr %6, align 8, !tbaa !45
  call void @llvm.lifetime.start.p0(i64 8, ptr %7) #8
  store i64 0, ptr %7, align 8, !tbaa !42
  call void @llvm.lifetime.start.p0(i64 4, ptr %8) #8
  call void @llvm.lifetime.start.p0(i64 4, ptr %9) #8
  call void @llvm.lifetime.start.p0(i64 4, ptr %10) #8
  store i32 0, ptr %10, align 4, !tbaa !12
  store i32 0, ptr %8, align 4, !tbaa !12
  br label %11

11:                                               ; preds = %49, %3
  %12 = load i32, ptr %8, align 4, !tbaa !12
  %13 = load ptr, ptr %4, align 8, !tbaa !10
  %14 = call i32 @Vec_IntSize(ptr noundef %13)
  %15 = icmp slt i32 %12, %14
  br i1 %15, label %16, label %20

16:                                               ; preds = %11
  %17 = load ptr, ptr %4, align 8, !tbaa !10
  %18 = load i32, ptr %8, align 4, !tbaa !12
  %19 = call i32 @Vec_IntEntry(ptr noundef %17, i32 noundef %18)
  store i32 %19, ptr %9, align 4, !tbaa !12
  br label %20

20:                                               ; preds = %16, %11
  %21 = phi i1 [ false, %11 ], [ true, %16 ]
  br i1 %21, label %22, label %52

22:                                               ; preds = %20
  %23 = load i32, ptr %9, align 4, !tbaa !12
  %24 = icmp eq i32 %23, -1
  br i1 %24, label %25, label %26

25:                                               ; preds = %22
  br label %49

26:                                               ; preds = %22
  %27 = load i64, ptr %7, align 8, !tbaa !42
  %28 = load i32, ptr %9, align 4, !tbaa !12
  %29 = call i32 @Abc_Lit2Var(i32 noundef %28)
  %30 = zext i32 %29 to i64
  %31 = lshr i64 %27, %30
  %32 = and i64 %31, 1
  %33 = icmp ne i64 %32, 0
  br i1 %33, label %34, label %35

34:                                               ; preds = %26
  br label %49

35:                                               ; preds = %26
  %36 = load i32, ptr %10, align 4, !tbaa !12
  %37 = add nsw i32 %36, 1
  store i32 %37, ptr %10, align 4, !tbaa !12
  %38 = load ptr, ptr %5, align 8, !tbaa !45
  %39 = load i32, ptr %9, align 4, !tbaa !12
  %40 = call i32 @Abc_Lit2Var(i32 noundef %39)
  %41 = sext i32 %40 to i64
  %42 = getelementptr inbounds i32, ptr %38, i64 %41
  store i32 %36, ptr %42, align 4, !tbaa !12
  %43 = load i32, ptr %9, align 4, !tbaa !12
  %44 = call i32 @Abc_Lit2Var(i32 noundef %43)
  %45 = zext i32 %44 to i64
  %46 = shl i64 1, %45
  %47 = load i64, ptr %7, align 8, !tbaa !42
  %48 = or i64 %47, %46
  store i64 %48, ptr %7, align 8, !tbaa !42
  br label %49

49:                                               ; preds = %35, %34, %25
  %50 = load i32, ptr %8, align 4, !tbaa !12
  %51 = add nsw i32 %50, 1
  store i32 %51, ptr %8, align 4, !tbaa !12
  br label %11, !llvm.loop !67

52:                                               ; preds = %20
  %53 = load i32, ptr %10, align 4, !tbaa !12
  %54 = load ptr, ptr %6, align 8, !tbaa !45
  store i32 %53, ptr %54, align 4, !tbaa !12
  %55 = load i64, ptr %7, align 8, !tbaa !42
  call void @llvm.lifetime.end.p0(i64 4, ptr %10) #8
  call void @llvm.lifetime.end.p0(i64 4, ptr %9) #8
  call void @llvm.lifetime.end.p0(i64 4, ptr %8) #8
  call void @llvm.lifetime.end.p0(i64 8, ptr %7) #8
  ret i64 %55
}