; Function Attrs: nofree norecurse nosync nounwind memory(read, argmem: readwrite, inaccessiblemem: none) uwtable
define i64 @Sbd_ManSolverSupp(ptr noundef readonly captures(none) %0, ptr noundef writeonly captures(none) %1, ptr noundef writeonly captures(none) %2) local_unnamed_addr #3 {
  %4 = getelementptr i8, ptr %0, i64 4
  %.val20 = load i32, ptr %4, align 4, !tbaa !7
  %5 = icmp sgt i32 %.val20, 0
  br i1 %5, label %.lr.ph, label %.critedge

.lr.ph:                                           ; preds = %3
  %6 = getelementptr i8, ptr %0, i64 8
  %.val19 = load ptr, ptr %6, align 8, !tbaa !11
  br label %7

7:                                                ; preds = %.lr.ph, %21
  %.val26 = phi i32 [ %.val20, %.lr.ph ], [ %.val, %21 ]
  %indvars.iv = phi i64 [ 0, %.lr.ph ], [ %indvars.iv.next, %21 ]
  %.023 = phi i32 [ 0, %.lr.ph ], [ %.1, %21 ]
  %.01522 = phi i64 [ 0, %.lr.ph ], [ %.116, %21 ]
  %8 = getelementptr inbounds nuw i32, ptr %.val19, i64 %indvars.iv
  %9 = load i32, ptr %8, align 4, !tbaa !3
  %10 = icmp eq i32 %9, -1
  br i1 %10, label %21, label %11

11:                                               ; preds = %7
  %12 = ashr i32 %9, 1
  %13 = zext nneg i32 %12 to i64
  %14 = shl nuw i64 1, %13
  %15 = and i64 %14, %.01522
  %.not = icmp eq i64 %15, 0
  br i1 %.not, label %16, label %21

16:                                               ; preds = %11
  %17 = add nsw i32 %.023, 1
  %18 = sext i32 %12 to i64
  %19 = getelementptr inbounds i32, ptr %1, i64 %18
  store i32 %.023, ptr %19, align 4, !tbaa !3
  %20 = or i64 %14, %.01522
  %.val.pre = load i32, ptr %4, align 4, !tbaa !7
  br label %21

21:                                               ; preds = %11, %7, %16
  %.val = phi i32 [ %.val26, %7 ], [ %.val26, %11 ], [ %.val.pre, %16 ]
  %.116 = phi i64 [ %.01522, %7 ], [ %.01522, %11 ], [ %20, %16 ]
  %.1 = phi i32 [ %.023, %7 ], [ %.023, %11 ], [ %17, %16 ]
  %indvars.iv.next = add nuw nsw i64 %indvars.iv, 1
  %22 = sext i32 %.val to i64
  %23 = icmp slt i64 %indvars.iv.next, %22
  br i1 %23, label %7, label %.critedge, !llvm.loop !59

.critedge:                                        ; preds = %21, %3
  %.015.lcssa = phi i64 [ 0, %3 ], [ %.116, %21 ]
  %.0.lcssa = phi i32 [ 0, %3 ], [ %.1, %21 ]
  store i32 %.0.lcssa, ptr %2, align 4, !tbaa !3
  ret i64 %.015.lcssa
}